target datalayout = "e-m:e-p270:32:32-p271:32:32-p272:64:64-i64:64-i128:128-f80:128-n8:16:32:64-S128"
target triple = "x86_64-pc-linux-gnu"

%struct._php_stream = type { ptr, ptr, %struct._php_stream_filter_chain, %struct._php_stream_filter_chain, ptr, ptr, %struct._zval_struct, i16, [16 x i8], i32, ptr, ptr, ptr, ptr, i64, ptr, i64, i64, i64, i64, ptr }
%struct._php_stream_filter_chain = type { ptr, ptr, ptr }
%struct._zval_struct = type { %union._zend_value, %union.anon, %union.anon.2 }
%union._zend_value = type { i64 }
%union.anon = type { i32 }
%union.anon.2 = type { i32 }

; Function Attrs: nounwind uwtable
define hidden void @php_stream_mode_sanitize_fdopen_fopencookie(ptr noundef %0, ptr noundef %1) #0 {
  %3 = alloca ptr, align 8
  %4 = alloca ptr, align 8
  %5 = alloca ptr, align 8
  %6 = alloca i32, align 4
  %7 = alloca i32, align 4
  %8 = alloca i32, align 4
  %9 = alloca i32, align 4
  store ptr %0, ptr %3, align 8
  store ptr %1, ptr %4, align 8
  %10 = load ptr, ptr %3, align 8
  %11 = getelementptr inbounds %struct._php_stream, ptr %10, i32 0, i32 8
  %12 = getelementptr inbounds [16 x i8], ptr %11, i64 0, i64 0
  store ptr %12, ptr %5, align 8
  store i32 0, ptr %6, align 4
  store i32 0, ptr %7, align 4
  store i32 0, ptr %9, align 4
  %13 = load ptr, ptr %5, align 8
  %14 = getelementptr inbounds i8, ptr %13, i64 0
  %15 = load i8, ptr %14, align 1
  %16 = sext i8 %15 to i32
  %17 = icmp eq i32 %16, 114
  br i1 %17, label %30, label %18

18:                                               ; preds = %2
  %19 = load ptr, ptr %5, align 8
  %20 = getelementptr inbounds i8, ptr %19, i64 0
  %21 = load i8, ptr %20, align 1
  %22 = sext i8 %21 to i32
  %23 = icmp eq i32 %22, 119
  br i1 %23, label %30, label %24

24:                                               ; preds = %18
  %25 = load ptr, ptr %5, align 8
  %26 = getelementptr inbounds i8, ptr %25, i64 0
  %27 = load i8, ptr %26, align 1
  %28 = sext i8 %27 to i32
  %29 = icmp eq i32 %28, 97
  br i1 %29, label %30, label %39

30:                                               ; preds = %24, %18, %2
  %31 = load ptr, ptr %5, align 8
  %32 = getelementptr inbounds i8, ptr %31, i64 0
  %33 = load i8, ptr %32, align 1
  %34 = load ptr, ptr %4, align 8
  %35 = load i32, ptr %9, align 4
  %36 = add nsw i32 %35, 1
  store i32 %36, ptr %9, align 4
  %37 = sext i32 %35 to i64
  %38 = getelementptr inbounds i8, ptr %34, i64 %37
  store i8 %33, ptr %38, align 1
  br label %45

39:                                               ; preds = %24
  %40 = load ptr, ptr %4, align 8
  %41 = load i32, ptr %9, align 4
  %42 = add nsw i32 %41, 1
  store i32 %42, ptr %9, align 4
  %43 = sext i32 %41 to i64
  %44 = getelementptr inbounds i8, ptr %40, i64 %43
  store i8 119, ptr %44, align 1
  br label %45

45:                                               ; preds = %39, %30
  store i32 1, ptr %8, align 4
  br label %46

46:                                               ; preds = %79, %45
  %47 = load i32, ptr %8, align 4
  %48 = icmp slt i32 %47, 4
  br i1 %48, label %49, label %57

49:                                               ; preds = %46
  %50 = load ptr, ptr %5, align 8
  %51 = load i32, ptr %8, align 4
  %52 = sext i32 %51 to i64
  %53 = getelementptr inbounds i8, ptr %50, i64 %52
  %54 = load i8, ptr %53, align 1
  %55 = sext i8 %54 to i32
  %56 = icmp ne i32 %55, 0
  br label %57

57:                                               ; preds = %49, %46
  %58 = phi i1 [ false, %46 ], [ %56, %49 ]
  br i1 %58, label %59, label %82

59:                                               ; preds = %57
  %60 = load ptr, ptr %5, align 8
  %61 = load i32, ptr %8, align 4
  %62 = sext i32 %61 to i64
  %63 = getelementptr inbounds i8, ptr %60, i64 %62
  %64 = load i8, ptr %63, align 1
  %65 = sext i8 %64 to i32
  %66 = icmp eq i32 %65, 98
  br i1 %66, label %67, label %68

67:                                               ; preds = %59
  store i32 1, ptr %7, align 4
  br label %78

68:                                               ; preds = %59
  %69 = load ptr, ptr %5, align 8
  %70 = load i32, ptr %8, align 4
  %71 = sext i32 %70 to i64
  %72 = getelementptr inbounds i8, ptr %69, i64 %71
  %73 = load i8, ptr %72, align 1
  %74 = sext i8 %73 to i32
  %75 = icmp eq i32 %74, 43
  br i1 %75, label %76, label %77

76:                                               ; preds = %68
  store i32 1, ptr %6, align 4
  br label %77

77:                                               ; preds = %76, %68
  br label %78

78:                                               ; preds = %77, %67
  br label %79

79:                                               ; preds = %78
  %80 = load i32, ptr %8, align 4
  %81 = add nsw i32 %80, 1
  store i32 %81, ptr %8, align 4
  br label %46

82:                                               ; preds = %57
  %83 = load i32, ptr %7, align 4
  %84 = icmp ne i32 %83, 0
  br i1 %84, label %85, label %91

85:                                               ; preds = %82
  %86 = load ptr, ptr %4, align 8
  %87 = load i32, ptr %9, align 4
  %88 = add nsw i32 %87, 1
  store i32 %88, ptr %9, align 4
  %89 = sext i32 %87 to i64
  %90 = getelementptr inbounds i8, ptr %86, i64 %89
  store i8 98, ptr %90, align 1
  br label %91

91:                                               ; preds = %85, %82
  %92 = load i32, ptr %6, align 4
  %93 = icmp ne i32 %92, 0
  br i1 %93, label %94, label %100

94:                                               ; preds = %91
  %95 = load ptr, ptr %4, align 8
  %96 = load i32, ptr %9, align 4
  %97 = add nsw i32 %96, 1
  store i32 %97, ptr %9, align 4
  %98 = sext i32 %96 to i64
  %99 = getelementptr inbounds i8, ptr %95, i64 %98
  store i8 43, ptr %99, align 1
  br label %100

100:                                              ; preds = %94, %91
  %101 = load ptr, ptr %4, align 8
  %102 = load i32, ptr %9, align 4
  %103 = sext i32 %102 to i64
  %104 = getelementptr inbounds i8, ptr %101, i64 %103
  store i8 0, ptr %104, align 1
  ret void
}