; Function Attrs: nofree norecurse nosync nounwind memory(argmem: readwrite) uwtable
define hidden void @php_stream_mode_sanitize_fdopen_fopencookie(ptr nocapture noundef readonly %0, ptr nocapture noundef writeonly %1) local_unnamed_addr #0 {
  %3 = getelementptr inbounds i8, ptr %0, i64 98
  %4 = load i8, ptr %3, align 1
  switch i8 %4, label %6 [
    i8 114, label %5
    i8 119, label %5
    i8 97, label %5
  ]

5:                                                ; preds = %2, %2, %2
  br label %6

6:                                                ; preds = %2, %5
  %storemerge = phi i8 [ %4, %5 ], [ 119, %2 ]
  store i8 %storemerge, ptr %1, align 1
  br label %7

7:                                                ; preds = %6, %11
  %indvars.iv = phi i64 [ 1, %6 ], [ %indvars.iv.next, %11 ]
  %.02534 = phi i32 [ 0, %6 ], [ %.126, %11 ]
  %.02733 = phi i32 [ 0, %6 ], [ %.128, %11 ]
  %8 = getelementptr inbounds i8, ptr %3, i64 %indvars.iv
  %9 = load i8, ptr %8, align 1
  switch i8 %9, label %.fold.split [
    i8 0, label %.critedge
    i8 98, label %11
    i8 43, label %10
  ]

10:                                               ; preds = %7
  br label %11

.fold.split:                                      ; preds = %7
  br label %11

11:                                               ; preds = %7, %.fold.split, %10
  %.128 = phi i32 [ 1, %10 ], [ %.02733, %7 ], [ %.02733, %.fold.split ]
  %.126 = phi i32 [ %.02534, %10 ], [ 1, %7 ], [ %.02534, %.fold.split ]
  %indvars.iv.next = add nuw nsw i64 %indvars.iv, 1
  %exitcond.not = icmp eq i64 %indvars.iv.next, 4
  br i1 %exitcond.not, label %.critedge, label %7

.critedge:                                        ; preds = %7, %11
  %.027.lcssa = phi i32 [ %.02733, %7 ], [ %.128, %11 ]
  %.025.lcssa = phi i32 [ %.02534, %7 ], [ %.126, %11 ]
  %.not31 = icmp eq i32 %.025.lcssa, 0
  br i1 %.not31, label %14, label %12

12:                                               ; preds = %.critedge
  %13 = getelementptr inbounds i8, ptr %1, i64 1
  store i8 98, ptr %13, align 1
  br label %14

14:                                               ; preds = %12, %.critedge
  %.1 = phi i32 [ 2, %12 ], [ 1, %.critedge ]
  %.not32 = icmp eq i32 %.027.lcssa, 0
  br i1 %.not32, label %19, label %15

15:                                               ; preds = %14
  %16 = add nuw nsw i32 %.1, 1
  %17 = zext nneg i32 %.1 to i64
  %18 = getelementptr inbounds i8, ptr %1, i64 %17
  store i8 43, ptr %18, align 1
  br label %19

19:                                               ; preds = %15, %14
  %.2 = phi i32 [ %16, %15 ], [ %.1, %14 ]
  %20 = zext nneg i32 %.2 to i64
  %21 = getelementptr inbounds i8, ptr %1, i64 %20
  store i8 0, ptr %21, align 1
  ret void
}